target datalayout = "e-m:e-p270:32:32-p271:32:32-p272:64:64-i64:64-i128:128-f80:128-n8:16:32:64-S128"
target triple = "x86_64-pc-linux-gnu"

@.str.204 = private unnamed_addr constant [14 x i8] c"lseek failed\0A\00", align 1

; Function Attrs: nounwind uwtable
define internal i32 @seekandread(i32 noundef %0, i64 noundef %1, i32 noundef %2, ptr noundef %3, i64 noundef %4) #0 {
  %6 = alloca i32, align 4
  %7 = alloca i32, align 4
  %8 = alloca i64, align 8
  %9 = alloca i32, align 4
  %10 = alloca ptr, align 8
  %11 = alloca i64, align 8
  store i32 %0, ptr %7, align 4
  store i64 %1, ptr %8, align 8
  store i32 %2, ptr %9, align 4
  store ptr %3, ptr %10, align 8
  store i64 %4, ptr %11, align 8
  %12 = load i32, ptr %7, align 4
  %13 = load i64, ptr %8, align 8
  %14 = load i32, ptr %9, align 4
  %15 = call i64 @lseek(i32 noundef %12, i64 noundef %13, i32 noundef %14) #8
  %16 = icmp eq i64 %15, -1
  br i1 %16, label %17, label %18

17:                                               ; preds = %5
  call void (ptr, ...) @cli_dbgmsg(ptr noundef @.str.204)
  store i32 0, ptr %6, align 4
  br label %26

18:                                               ; preds = %5
  %19 = load i32, ptr %7, align 4
  %20 = load ptr, ptr %10, align 8
  %21 = load i64, ptr %11, align 8
  %22 = call i64 @cli_readn(i32 noundef %19, ptr noundef %20, i64 noundef %21)
  %23 = load i64, ptr %11, align 8
  %24 = icmp eq i64 %22, %23
  %25 = zext i1 %24 to i32
  store i32 %25, ptr %6, align 4
  br label %26

26:                                               ; preds = %18, %17
  %27 = load i32, ptr %6, align 4
  ret i32 %27
}