; Function Attrs: nounwind uwtable
define internal fastcc i32 @seekandread(i32 noundef %0, i64 noundef %1, i32 noundef %2, ptr noundef %3, i64 noundef %4) unnamed_addr #0 {
  %6 = tail call i64 @lseek(i32 noundef %0, i64 noundef %1, i32 noundef %2) #17
  %7 = icmp eq i64 %6, -1
  br i1 %7, label %8, label %9

8:                                                ; preds = %5
  tail call void (ptr, ...) @cli_dbgmsg(ptr noundef nonnull @.str.204) #17
  br label %13

9:                                                ; preds = %5
  %10 = tail call i64 @cli_readn(i32 noundef %0, ptr noundef %3, i64 noundef %4) #17
  %11 = icmp eq i64 %10, %4
  %12 = zext i1 %11 to i32
  br label %13

13:                                               ; preds = %9, %8
  %.0 = phi i32 [ 0, %8 ], [ %12, %9 ]
  ret i32 %.0
}